; Function Attrs: nounwind uwtable
define dso_local noundef i64 @PyThread_start_new_thread(ptr noundef %0, ptr noundef %1) local_unnamed_addr #0 {
  %3 = alloca i64, align 8
  call void @llvm.lifetime.start.p0(i64 8, ptr nonnull %3) #13
  store i64 0, ptr %3, align 8, !tbaa !176
  %4 = call fastcc i32 @do_start_joinable_thread(ptr noundef %0, ptr noundef %1, ptr noundef %3)
  %.not = icmp eq i32 %4, 0
  br i1 %.not, label %5, label %8

5:                                                ; preds = %2
  %6 = load i64, ptr %3, align 8, !tbaa !176
  %7 = tail call i32 @pthread_detach(i64 noundef %6) #13
  br label %8

8:                                                ; preds = %2, %5
  %.0 = phi i64 [ %6, %5 ], [ -1, %2 ]
  call void @llvm.lifetime.end.p0(i64 8, ptr nonnull %3) #13
  ret i64 %.0
}